#include <math.h>
#include <stdio.h>
#include <stdlib.h>
#include <string.h>

int main(){
    int i,j,n,k;
    scanf("%d%d",&n,&k);
    int num[1500],sz[1500];
    for(i=0;i<n;i++){
		scanf("%d",&(num[i]));
		sz[i]=num[i];
    }
    for(i=0;i<n;i++){
		for(j=i;j<n;j++){
			if(num[i]+sz[j]==k){
				printf("yes");
				break;
			}
				if((i==n-1)&&(j==n-1)){
					printf("no");
				}
			
		}
		if(num[i]+sz[j]==k){
				break;
			}
    }
    return 0;
}  