; ModuleID = 'source-C-CXX/2/2583.c'
source_filename = "source-C-CXX/2/2583.c"
target datalayout = "e-m:e-p270:32:32-p271:32:32-p272:64:64-i64:64-f80:128-n8:16:32:64-S128"
target triple = "x86_64-pc-linux-gnu"

@.str = private unnamed_addr constant [5 x i8] c"%d%d\00", align 1
@.str.1 = private unnamed_addr constant [3 x i8] c"%d\00", align 1
@.str.2 = private unnamed_addr constant [4 x i8] c"yes\00", align 1
@.str.3 = private unnamed_addr constant [3 x i8] c"no\00", align 1

; Function Attrs: nofree nounwind sspstrong uwtable
define dso_local i32 @main() local_unnamed_addr #0 {
  %1 = alloca i32, align 4
  %2 = alloca i32, align 4
  %3 = alloca [1500 x i32], align 16
  %4 = alloca [1500 x i32], align 16
  %5 = bitcast i32* %1 to i8*
  call void @llvm.lifetime.start.p0i8(i64 4, i8* nonnull %5) #3
  %6 = bitcast i32* %2 to i8*
  call void @llvm.lifetime.start.p0i8(i64 4, i8* nonnull %6) #3
  %7 = call i32 (i8*, ...) @__isoc99_scanf(i8* getelementptr inbounds ([5 x i8], [5 x i8]* @.str, i64 0, i64 0), i32* nonnull %1, i32* nonnull %2)
  %8 = bitcast [1500 x i32]* %3 to i8*
  call void @llvm.lifetime.start.p0i8(i64 6000, i8* nonnull %8) #3
  %9 = bitcast [1500 x i32]* %4 to i8*
  call void @llvm.lifetime.start.p0i8(i64 6000, i8* nonnull %9) #3
  %10 = load i32, i32* %1, align 4, !tbaa !5
  %11 = icmp sgt i32 %10, 0
  br i1 %11, label %14, label %69

12:                                               ; preds = %14
  %13 = icmp sgt i32 %21, 0
  br i1 %13, label %28, label %69

14:                                               ; preds = %0, %14
  %15 = phi i64 [ %20, %14 ], [ 0, %0 ]
  %16 = getelementptr inbounds [1500 x i32], [1500 x i32]* %3, i64 0, i64 %15
  %17 = call i32 (i8*, ...) @__isoc99_scanf(i8* getelementptr inbounds ([3 x i8], [3 x i8]* @.str.1, i64 0, i64 0), i32* nonnull %16)
  %18 = load i32, i32* %16, align 4, !tbaa !5
  %19 = getelementptr inbounds [1500 x i32], [1500 x i32]* %4, i64 0, i64 %15
  store i32 %18, i32* %19, align 4, !tbaa !5
  %20 = add nuw nsw i64 %15, 1
  %21 = load i32, i32* %1, align 4, !tbaa !5
  %22 = sext i32 %21 to i64
  %23 = icmp slt i64 %20, %22
  br i1 %23, label %14, label %12, !llvm.loop !9

24:                                               ; preds = %59
  %25 = load i32, i32* %1, align 4, !tbaa !5
  %26 = sext i32 %25 to i64
  %27 = icmp slt i64 %68, %26
  br i1 %27, label %28, label %69, !llvm.loop !11

28:                                               ; preds = %12, %24
  %29 = phi i32 [ %25, %24 ], [ %21, %12 ]
  %30 = phi i64 [ %68, %24 ], [ 0, %12 ]
  %31 = getelementptr inbounds [1500 x i32], [1500 x i32]* %3, i64 0, i64 %30
  %32 = sext i32 %29 to i64
  %33 = icmp slt i64 %30, %32
  br i1 %33, label %34, label %59

34:                                               ; preds = %28, %54
  %35 = phi i32 [ %55, %54 ], [ %29, %28 ]
  %36 = phi i64 [ %56, %54 ], [ %30, %28 ]
  %37 = load i32, i32* %31, align 4, !tbaa !5
  %38 = getelementptr inbounds [1500 x i32], [1500 x i32]* %4, i64 0, i64 %36
  %39 = load i32, i32* %38, align 4, !tbaa !5
  %40 = add nsw i32 %39, %37
  %41 = load i32, i32* %2, align 4, !tbaa !5
  %42 = icmp eq i32 %40, %41
  br i1 %42, label %43, label %45

43:                                               ; preds = %34
  %44 = call i32 (i8*, ...) @printf(i8* nonnull dereferenceable(1) getelementptr inbounds ([4 x i8], [4 x i8]* @.str.2, i64 0, i64 0))
  br label %59

45:                                               ; preds = %34
  %46 = add nsw i32 %35, -1
  %47 = zext i32 %46 to i64
  %48 = icmp eq i64 %30, %47
  %49 = icmp eq i64 %36, %47
  %50 = select i1 %48, i1 %49, i1 false
  br i1 %50, label %51, label %54

51:                                               ; preds = %45
  %52 = call i32 (i8*, ...) @printf(i8* nonnull dereferenceable(1) getelementptr inbounds ([3 x i8], [3 x i8]* @.str.3, i64 0, i64 0))
  %53 = load i32, i32* %1, align 4, !tbaa !5
  br label %54

54:                                               ; preds = %45, %51
  %55 = phi i32 [ %35, %45 ], [ %53, %51 ]
  %56 = add nuw nsw i64 %36, 1
  %57 = trunc i64 %56 to i32
  %58 = icmp sgt i32 %55, %57
  br i1 %58, label %34, label %59, !llvm.loop !12

59:                                               ; preds = %54, %28, %43
  %60 = phi i64 [ %36, %43 ], [ %30, %28 ], [ %56, %54 ]
  %61 = load i32, i32* %31, align 4, !tbaa !5
  %62 = and i64 %60, 4294967295
  %63 = getelementptr inbounds [1500 x i32], [1500 x i32]* %4, i64 0, i64 %62
  %64 = load i32, i32* %63, align 4, !tbaa !5
  %65 = add nsw i32 %64, %61
  %66 = load i32, i32* %2, align 4, !tbaa !5
  %67 = icmp eq i32 %65, %66
  %68 = add nuw nsw i64 %30, 1
  br i1 %67, label %69, label %24

69:                                               ; preds = %24, %59, %0, %12
  call void @llvm.lifetime.end.p0i8(i64 6000, i8* nonnull %9) #3
  call void @llvm.lifetime.end.p0i8(i64 6000, i8* nonnull %8) #3
  call void @llvm.lifetime.end.p0i8(i64 4, i8* nonnull %6) #3
  call void @llvm.lifetime.end.p0i8(i64 4, i8* nonnull %5) #3
  ret i32 0
}

; Function Attrs: argmemonly mustprogress nofree nosync nounwind willreturn
declare void @llvm.lifetime.start.p0i8(i64 immarg, i8* nocapture) #1

; Function Attrs: nofree nounwind
declare noundef i32 @__isoc99_scanf(i8* nocapture noundef readonly, ...) local_unnamed_addr #2

; Function Attrs: nofree nounwind
declare noundef i32 @printf(i8* nocapture noundef readonly, ...) local_unnamed_addr #2

; Function Attrs: argmemonly mustprogress nofree nosync nounwind willreturn
declare void @llvm.lifetime.end.p0i8(i64 immarg, i8* nocapture) #1


!llvm.module.flags = !{!0, !1, !2, !3}
!llvm.ident = !{!4}

!0 = !{i32 1, !"wchar_size", i32 4}
!1 = !{i32 7, !"PIC Level", i32 2}
!2 = !{i32 7, !"PIE Level", i32 2}
!3 = !{i32 7, !"uwtable", i32 1}
!4 = !{!"clang version 13.0.0"}
!5 = !{!6, !6, i64 0}
!6 = !{!"int", !7, i64 0}
!7 = !{!"omnipotent char", !8, i64 0}
!8 = !{!"Simple C/C++ TBAA"}
!9 = distinct !{!9, !10}
!10 = !{!"llvm.loop.mustprogress"}
!11 = distinct !{!11, !10}
!12 = distinct !{!12, !10}
